; Function Attrs: nounwind uwtable
define ptr @l_Option_toJson___at_Lean_Lsp_instToJsonRefInfo___spec__6(ptr noundef %0) local_unnamed_addr #1 {
  %2 = ptrtoint ptr %0 to i64
  %3 = and i64 %2, 1
  %.not.i8 = icmp eq i64 %3, 0
  br i1 %.not.i8, label %7, label %4

4:                                                ; preds = %1
  %5 = lshr i64 %2, 1
  %6 = trunc i64 %5 to i32
  br label %lean_obj_tag.exit

7:                                                ; preds = %1
  %8 = getelementptr i8, ptr %0, i64 4
  %.val.i = load i32, ptr %8, align 4
  %9 = lshr i32 %.val.i, 24
  br label %lean_obj_tag.exit

lean_obj_tag.exit:                                ; preds = %4, %7
  %.0.i = phi i32 [ %6, %4 ], [ %9, %7 ]
  %10 = icmp eq i32 %.0.i, 0
  br i1 %10, label %31, label %11

11:                                               ; preds = %lean_obj_tag.exit
  %12 = getelementptr inbounds nuw i8, ptr %0, i64 8
  %13 = load ptr, ptr %12, align 8, !tbaa !4
  %14 = ptrtoint ptr %13 to i64
  %15 = and i64 %14, 1
  %.not = icmp eq i64 %15, 0
  br i1 %.not, label %16, label %lean_inc.exit

16:                                               ; preds = %11
  %.val.i9 = load i32, ptr %13, align 4, !tbaa !8
  %17 = icmp sgt i32 %.val.i9, 0
  br i1 %17, label %18, label %20, !prof !11

18:                                               ; preds = %16
  %19 = add nuw i32 %.val.i9, 1
  store i32 %19, ptr %13, align 4, !tbaa !8
  br label %lean_inc.exit

20:                                               ; preds = %16
  %.not.i10 = icmp eq i32 %.val.i9, 0
  br i1 %.not.i10, label %lean_inc.exit, label %21

21:                                               ; preds = %20
  tail call void @lean_inc_ref_cold(ptr noundef nonnull %13) #8
  br label %lean_inc.exit

lean_inc.exit:                                    ; preds = %21, %20, %18, %11
  br i1 %.not.i8, label %22, label %lean_dec.exit

22:                                               ; preds = %lean_inc.exit
  %23 = load i32, ptr %0, align 4, !tbaa !8
  %24 = icmp sgt i32 %23, 1
  br i1 %24, label %25, label %27, !prof !11

25:                                               ; preds = %22
  %26 = add nsw i32 %23, -1
  store i32 %26, ptr %0, align 4, !tbaa !8
  br label %lean_dec.exit

27:                                               ; preds = %22
  %.not.i = icmp eq i32 %23, 0
  br i1 %.not.i, label %lean_dec.exit, label %28

28:                                               ; preds = %27
  tail call void @lean_dec_ref_cold(ptr noundef nonnull %0) #8
  br label %lean_dec.exit

lean_dec.exit:                                    ; preds = %28, %27, %25, %lean_inc.exit
  %29 = tail call ptr @lean_array_mk(ptr noundef %13) #8
  %30 = tail call ptr @l_Array_toJson___at___private_Lean_Data_Lsp_Basic_0__Lean_Lsp_toJsonCommand____x40_Lean_Data_Lsp_Basic___hyg_1558____spec__2(ptr noundef %29) #8
  br label %31

31:                                               ; preds = %lean_obj_tag.exit, %lean_dec.exit
  %.0 = phi ptr [ %30, %lean_dec.exit ], [ inttoptr (i64 1 to ptr), %lean_obj_tag.exit ]
  ret ptr %.0
}